; Function Attrs: mustprogress uwtable
define hidden void @_ZN2cv6detail8tracking15contrib_feature18CvFeatureEvaluator4initEPKNS2_15CvFeatureParamsEiNS_5Size_IiEE(ptr noundef nonnull align 8 dereferenceable(136) %0, ptr noundef %1, i32 noundef %2, i64 %3) unnamed_addr #5 align 2 personality ptr @__gxx_personality_v0 {
  %5 = alloca %"class.std::__cxx11::basic_string", align 8
  %6 = alloca %"class.std::allocator", align 1
  %7 = icmp sgt i32 %2, 0
  br i1 %7, label %18, label %8

8:                                                ; preds = %4
  call void @llvm.lifetime.start.p0(i64 32, ptr nonnull %5) #31
  call void @llvm.lifetime.start.p0(i64 1, ptr nonnull %6) #31
  call void @_ZNSt7__cxx1112basic_stringIcSt11char_traitsIcESaIcEEC2EPKcRKS3_(ptr noundef nonnull align 8 dereferenceable(32) %5, ptr noundef nonnull @.str.6, ptr noundef nonnull align 1 dereferenceable(1) %6)
  invoke void @_ZN2cv5errorEiRKNSt7__cxx1112basic_stringIcSt11char_traitsIcESaIcEEEPKcS9_i(i32 noundef -215, ptr noundef nonnull align 8 dereferenceable(32) %5, ptr noundef nonnull @__func__._ZN2cv6detail8tracking15contrib_feature18CvFeatureEvaluator4initEPKNS2_15CvFeatureParamsEiNS_5Size_IiEE, ptr noundef nonnull @.str.7, i32 noundef 114) #29
          to label %9 unwind label %10

9:                                                ; preds = %8
  unreachable

10:                                               ; preds = %8
  %11 = landingpad { ptr, i32 }
          cleanup
  %12 = load ptr, ptr %5, align 8, !tbaa !15
  %13 = getelementptr inbounds nuw i8, ptr %5, i64 16
  %14 = icmp eq ptr %12, %13
  br i1 %14, label %_ZNKSt7__cxx1112basic_stringIcSt11char_traitsIcESaIcEE11_M_is_localEv.exit.thread.i.i, label %_ZNKSt7__cxx1112basic_stringIcSt11char_traitsIcESaIcEE11_M_is_localEv.exit.i.i

_ZNKSt7__cxx1112basic_stringIcSt11char_traitsIcESaIcEE11_M_is_localEv.exit.thread.i.i: ; preds = %10
  %15 = getelementptr inbounds nuw i8, ptr %5, i64 8
  %16 = load i64, ptr %15, align 8, !tbaa !11
  %17 = icmp ult i64 %16, 16
  call void @llvm.assume(i1 %17)
  br label %_ZNSt7__cxx1112basic_stringIcSt11char_traitsIcESaIcEED2Ev.exit

_ZNKSt7__cxx1112basic_stringIcSt11char_traitsIcESaIcEE11_M_is_localEv.exit.i.i: ; preds = %10
  call void @_ZdlPv(ptr noundef %12) #30
  br label %_ZNSt7__cxx1112basic_stringIcSt11char_traitsIcESaIcEED2Ev.exit

_ZNSt7__cxx1112basic_stringIcSt11char_traitsIcESaIcEED2Ev.exit: ; preds = %_ZNKSt7__cxx1112basic_stringIcSt11char_traitsIcESaIcEE11_M_is_localEv.exit.i.i, %_ZNKSt7__cxx1112basic_stringIcSt11char_traitsIcESaIcEE11_M_is_localEv.exit.thread.i.i
  call void @llvm.lifetime.end.p0(i64 1, ptr nonnull %6) #31
  call void @llvm.lifetime.end.p0(i64 32, ptr nonnull %5) #31
  resume { ptr, i32 } %11

18:                                               ; preds = %4
  %19 = getelementptr inbounds nuw i8, ptr %0, i64 32
  store ptr %1, ptr %19, align 8, !tbaa !69
  %20 = getelementptr inbounds nuw i8, ptr %0, i64 20
  store i64 %3, ptr %20, align 4
  %21 = getelementptr inbounds nuw i8, ptr %1, i64 48
  %22 = load i32, ptr %21, align 8, !tbaa !43
  %23 = getelementptr inbounds nuw i8, ptr %0, i64 16
  store i32 %22, ptr %23, align 8, !tbaa !78
  %24 = getelementptr inbounds nuw i8, ptr %0, i64 40
  tail call void @_ZN2cv3Mat6createEiii(ptr noundef nonnull align 8 dereferenceable(96) %24, i32 noundef %2, i32 noundef 1, i32 noundef 5)
  %25 = load ptr, ptr %0, align 8, !tbaa !3
  %26 = getelementptr inbounds nuw i8, ptr %25, i64 48
  %27 = load ptr, ptr %26, align 8
  tail call void %27(ptr noundef nonnull align 8 dereferenceable(136) %0)
  ret void
}